target datalayout = "e-m:e-p270:32:32-p271:32:32-p272:64:64-i64:64-i128:128-f80:128-n8:16:32:64-S128"
target triple = "x86_64-pc-linux-gnu"

%struct.FT_Module_Class_ = type { i64, i64, ptr, i64, i64, ptr, ptr, ptr, ptr }
%struct.FT_RendererRec_ = type { %struct.FT_ModuleRec_, ptr, i32, %struct.FT_Glyph_Class_, ptr, ptr, ptr }
%struct.FT_ModuleRec_ = type { ptr, ptr, ptr }
%struct.FT_Glyph_Class_ = type { i64, i32, ptr, ptr, ptr, ptr, ptr, ptr }
%struct.FT_Renderer_Class_ = type { %struct.FT_Module_Class_, i32, ptr, ptr, ptr, ptr, ptr }
%struct.FT_Raster_Funcs_ = type { i32, ptr, ptr, ptr, ptr, ptr }

; Function Attrs: nounwind uwtable
define internal i32 @ft_raster1_set_mode(ptr noundef %0, i64 noundef %1, ptr noundef %2) #0 {
  %4 = alloca ptr, align 8
  %5 = alloca i64, align 8
  %6 = alloca ptr, align 8
  store ptr %0, ptr %4, align 8, !tbaa !62
  store i64 %1, ptr %5, align 8, !tbaa !23
  store ptr %2, ptr %6, align 8, !tbaa !3
  %7 = load ptr, ptr %4, align 8, !tbaa !62
  %8 = getelementptr inbounds nuw %struct.FT_RendererRec_, ptr %7, i32 0, i32 1
  %9 = load ptr, ptr %8, align 8, !tbaa !64
  %10 = getelementptr inbounds nuw %struct.FT_Renderer_Class_, ptr %9, i32 0, i32 6
  %11 = load ptr, ptr %10, align 8, !tbaa !71
  %12 = getelementptr inbounds nuw %struct.FT_Raster_Funcs_, ptr %11, i32 0, i32 3
  %13 = load ptr, ptr %12, align 8, !tbaa !104
  %14 = load ptr, ptr %4, align 8, !tbaa !62
  %15 = getelementptr inbounds nuw %struct.FT_RendererRec_, ptr %14, i32 0, i32 4
  %16 = load ptr, ptr %15, align 8, !tbaa !77
  %17 = load i64, ptr %5, align 8, !tbaa !23
  %18 = load ptr, ptr %6, align 8, !tbaa !3
  %19 = call i32 %13(ptr noundef %16, i64 noundef %17, ptr noundef %18)
  ret i32 %19
}